target datalayout = "e-m:e-p270:32:32-p271:32:32-p272:64:64-i64:64-i128:128-f80:128-n8:16:32:64-S128"
target triple = "x86_64-unknown-linux-gnu"

%struct.rtree_ctx_s = type { [16 x %struct.rtree_ctx_cache_elm_s], [8 x %struct.rtree_ctx_cache_elm_s] }
%struct.rtree_ctx_cache_elm_s = type { i64, ptr }
%struct.tsd_s = type { i8, i8, i64, i64, i64, i64, i64, i64, i64, i64, i64, i64, i64, i64, ptr, i64, i64, i64, ptr, ptr, %struct.ticker_geom_s, i8, %struct.tsd_binshards_s, %struct.tsd_link_t, i8, %struct.peak_s, %struct.activity_callback_thunk_s, %struct.tcache_slow_s, %struct.rtree_ctx_s, %struct.atomic_u8_t, i64, i64, i64, i64, %struct.tcache_s, %struct.witness_tsd_s }
%struct.ticker_geom_s = type { i32, i32 }
%struct.tsd_binshards_s = type { [39 x i8] }
%struct.tsd_link_t = type { ptr, ptr }
%struct.peak_s = type { i64, i64 }
%struct.activity_callback_thunk_s = type { ptr, ptr }
%struct.tcache_slow_s = type { %struct.anon.7, %struct.cache_bin_array_descriptor_s, ptr, i32, [39 x i8], [39 x i8], [39 x i8], ptr, ptr }
%struct.anon.7 = type { ptr, ptr }
%struct.cache_bin_array_descriptor_s = type { %struct.anon.8, ptr }
%struct.anon.8 = type { ptr, ptr }
%struct.atomic_u8_t = type { i8 }
%struct.tcache_s = type { ptr, [76 x %struct.cache_bin_s] }
%struct.cache_bin_s = type { ptr, %struct.cache_bin_stats_s, i16, i16, i16 }
%struct.cache_bin_stats_s = type { i64 }
%struct.witness_tsd_s = type { %struct.witness_list_t, i8 }
%struct.witness_list_t = type { ptr }
%struct.emap_prepare_s = type { ptr, ptr, ptr, ptr }

; Function Attrs: nounwind uwtable
define hidden void @emap_merge_prepare(ptr noundef %tsdn, ptr noundef %emap, ptr noundef %prepare, ptr noundef %lead, ptr noundef %trail) #0 {
entry:
  %tsd.addr.i6 = alloca ptr, align 8
  %tsd.addr.i.i = alloca ptr, align 8
  %tsd.addr.i5 = alloca ptr, align 8
  %state.i = alloca i8, align 1
  %tsd.addr.i = alloca ptr, align 8
  %tsdn.addr.i4 = alloca ptr, align 8
  %tsdn.addr.i3 = alloca ptr, align 8
  %retval.i = alloca ptr, align 8
  %tsdn.addr.i = alloca ptr, align 8
  %fallback.addr.i = alloca ptr, align 8
  %tsdn.addr = alloca ptr, align 8
  %emap.addr = alloca ptr, align 8
  %prepare.addr = alloca ptr, align 8
  %lead.addr = alloca ptr, align 8
  %trail.addr = alloca ptr, align 8
  %rtree_ctx_fallback = alloca %struct.rtree_ctx_s, align 8
  %rtree_ctx = alloca ptr, align 8
  store ptr %tsdn, ptr %tsdn.addr, align 8
  store ptr %emap, ptr %emap.addr, align 8
  store ptr %prepare, ptr %prepare.addr, align 8
  store ptr %lead, ptr %lead.addr, align 8
  store ptr %trail, ptr %trail.addr, align 8
  %0 = load ptr, ptr %tsdn.addr, align 8
  store ptr %0, ptr %tsdn.addr.i, align 8
  store ptr %rtree_ctx_fallback, ptr %fallback.addr.i, align 8
  %1 = load ptr, ptr %tsdn.addr.i, align 8
  store ptr %1, ptr %tsdn.addr.i3, align 8
  %2 = load ptr, ptr %tsdn.addr.i3, align 8
  %cmp.i = icmp eq ptr %2, null
  br i1 %cmp.i, label %if.then.i, label %if.end.i

if.then.i:                                        ; preds = %entry
  %3 = load ptr, ptr %fallback.addr.i, align 8
  call void @rtree_ctx_data_init(ptr noundef %3) #5
  %4 = load ptr, ptr %fallback.addr.i, align 8
  store ptr %4, ptr %retval.i, align 8
  br label %tsdn_rtree_ctx.exit

if.end.i:                                         ; preds = %entry
  %5 = load ptr, ptr %tsdn.addr.i, align 8
  store ptr %5, ptr %tsdn.addr.i4, align 8
  %6 = load ptr, ptr %tsdn.addr.i4, align 8
  store ptr %6, ptr %tsd.addr.i, align 8
  %7 = load ptr, ptr %tsd.addr.i, align 8
  store ptr %7, ptr %tsd.addr.i5, align 8
  %8 = load ptr, ptr %tsd.addr.i5, align 8
  store ptr %8, ptr %tsd.addr.i.i, align 8
  %9 = load ptr, ptr %tsd.addr.i.i, align 8
  %state.i.i = getelementptr inbounds %struct.tsd_s, ptr %9, i32 0, i32 29
  %10 = load i8, ptr %state.i.i, align 8
  store i8 %10, ptr %state.i, align 1
  %11 = load ptr, ptr %tsd.addr.i5, align 8
  store ptr %11, ptr %tsd.addr.i6, align 8
  %12 = load ptr, ptr %tsd.addr.i6, align 8
  %cant_access_tsd_items_directly_use_a_getter_or_setter_rtree_ctx.i = getelementptr inbounds %struct.tsd_s, ptr %12, i32 0, i32 28
  store ptr %cant_access_tsd_items_directly_use_a_getter_or_setter_rtree_ctx.i, ptr %retval.i, align 8
  br label %tsdn_rtree_ctx.exit

tsdn_rtree_ctx.exit:                              ; preds = %if.end.i, %if.then.i
  %13 = load ptr, ptr %retval.i, align 8
  store ptr %13, ptr %rtree_ctx, align 8
  %14 = load ptr, ptr %tsdn.addr, align 8
  %15 = load ptr, ptr %emap.addr, align 8
  %16 = load ptr, ptr %rtree_ctx, align 8
  %17 = load ptr, ptr %lead.addr, align 8
  %18 = load ptr, ptr %prepare.addr, align 8
  %lead_elm_a = getelementptr inbounds %struct.emap_prepare_s, ptr %18, i32 0, i32 0
  %19 = load ptr, ptr %prepare.addr, align 8
  %lead_elm_b = getelementptr inbounds %struct.emap_prepare_s, ptr %19, i32 0, i32 1
  %call1 = call zeroext i1 @emap_rtree_leaf_elms_lookup(ptr noundef %14, ptr noundef %15, ptr noundef %16, ptr noundef %17, i1 noundef zeroext true, i1 noundef zeroext false, ptr noundef %lead_elm_a, ptr noundef %lead_elm_b)
  %20 = load ptr, ptr %tsdn.addr, align 8
  %21 = load ptr, ptr %emap.addr, align 8
  %22 = load ptr, ptr %rtree_ctx, align 8
  %23 = load ptr, ptr %trail.addr, align 8
  %24 = load ptr, ptr %prepare.addr, align 8
  %trail_elm_a = getelementptr inbounds %struct.emap_prepare_s, ptr %24, i32 0, i32 2
  %25 = load ptr, ptr %prepare.addr, align 8
  %trail_elm_b = getelementptr inbounds %struct.emap_prepare_s, ptr %25, i32 0, i32 3
  %call2 = call zeroext i1 @emap_rtree_leaf_elms_lookup(ptr noundef %20, ptr noundef %21, ptr noundef %22, ptr noundef %23, i1 noundef zeroext true, i1 noundef zeroext false, ptr noundef %trail_elm_a, ptr noundef %trail_elm_b)
  ret void
}