; Function Attrs: nounwind uwtable
define hidden void @emap_merge_prepare(ptr noundef %tsdn, ptr noundef %emap, ptr nocapture noundef writeonly %prepare, ptr nocapture noundef readonly %lead, ptr nocapture noundef readonly %trail) local_unnamed_addr #0 {
entry:
  %rtree_ctx_fallback = alloca %struct.rtree_ctx_s, align 8
  %cmp.i = icmp eq ptr %tsdn, null
  %lead_elm_b11 = getelementptr inbounds i8, ptr %prepare, i64 8
  %trail_elm_a15 = getelementptr inbounds i8, ptr %prepare, i64 16
  %trail_elm_b16 = getelementptr inbounds i8, ptr %prepare, i64 24
  br i1 %cmp.i, label %if.then.i, label %if.end.i

if.then.i:                                        ; preds = %entry
  call void @rtree_ctx_data_init(ptr noundef nonnull %rtree_ctx_fallback) #4
  %call112 = call fastcc zeroext i1 @emap_rtree_leaf_elms_lookup(ptr noundef null, ptr noundef %emap, ptr noundef nonnull %rtree_ctx_fallback, ptr noundef %lead, i1 noundef zeroext true, i1 noundef zeroext false, ptr noundef %prepare, ptr noundef nonnull %lead_elm_b11)
  %call217 = call fastcc zeroext i1 @emap_rtree_leaf_elms_lookup(ptr noundef null, ptr noundef %emap, ptr noundef nonnull %rtree_ctx_fallback, ptr noundef %trail, i1 noundef zeroext true, i1 noundef zeroext false, ptr noundef nonnull %trail_elm_a15, ptr noundef nonnull %trail_elm_b16)
  br label %tsdn_rtree_ctx.exit

if.end.i:                                         ; preds = %entry
  %cant_access_tsd_items_directly_use_a_getter_or_setter_rtree_ctx.i = getelementptr inbounds i8, ptr %tsdn, i64 448
  %call114 = tail call fastcc zeroext i1 @emap_rtree_leaf_elms_lookup(ptr noundef nonnull %tsdn, ptr noundef %emap, ptr noundef nonnull %cant_access_tsd_items_directly_use_a_getter_or_setter_rtree_ctx.i, ptr noundef %lead, i1 noundef zeroext true, i1 noundef zeroext false, ptr noundef %prepare, ptr noundef nonnull %lead_elm_b11)
  %call220 = tail call fastcc zeroext i1 @emap_rtree_leaf_elms_lookup(ptr noundef nonnull %tsdn, ptr noundef %emap, ptr noundef nonnull %cant_access_tsd_items_directly_use_a_getter_or_setter_rtree_ctx.i, ptr noundef %trail, i1 noundef zeroext true, i1 noundef zeroext false, ptr noundef nonnull %trail_elm_a15, ptr noundef nonnull %trail_elm_b16)
  br label %tsdn_rtree_ctx.exit

tsdn_rtree_ctx.exit:                              ; preds = %if.end.i, %if.then.i
  ret void
}